; Function Attrs: noinline nounwind uwtable
define internal fastcc double @r_float_str(ptr noundef nonnull captures(none) %0) unnamed_addr #8 {
  %2 = alloca [256 x i8], align 16
  call void @llvm.lifetime.start.p0(i64 256, ptr nonnull %2) #11
  %3 = getelementptr inbounds nuw i8, ptr %0, i64 24
  %4 = load ptr, ptr %3, align 8, !tbaa !48
  %.not.i = icmp eq ptr %4, null
  br i1 %.not.i, label %11, label %5

5:                                                ; preds = %1
  %6 = getelementptr inbounds nuw i8, ptr %0, i64 32
  %7 = load ptr, ptr %6, align 8, !tbaa !49
  %8 = icmp ult ptr %4, %7
  br i1 %8, label %9, label %19

9:                                                ; preds = %5
  %10 = getelementptr i8, ptr %4, i64 1
  store ptr %10, ptr %3, align 8, !tbaa !48
  br label %.sink.split

11:                                               ; preds = %1
  %12 = getelementptr inbounds nuw i8, ptr %0, i64 16
  %13 = load ptr, ptr %12, align 8, !tbaa !43
  %.not15.i = icmp eq ptr %13, null
  br i1 %.not15.i, label %14, label %17

14:                                               ; preds = %11
  %15 = load ptr, ptr %0, align 8, !tbaa !45
  %16 = tail call i32 @getc(ptr noundef %15)
  %.not16.not.i = icmp eq i32 %16, -1
  br i1 %.not16.not.i, label %19, label %23

17:                                               ; preds = %11
  %18 = tail call fastcc ptr @r_string(i64 noundef 1, ptr noundef nonnull %0)
  %.not17.i = icmp eq ptr %18, null
  br i1 %.not17.i, label %r_byte.exit, label %.sink.split

19:                                               ; preds = %14, %5
  %20 = load ptr, ptr @PyExc_EOFError, align 8, !tbaa !29
  tail call void @PyErr_SetString(ptr noundef %20, ptr noundef nonnull @.str.8) #11
  br label %r_byte.exit

.sink.split:                                      ; preds = %17, %9
  %.sink12 = phi ptr [ %4, %9 ], [ %18, %17 ]
  %21 = load i8, ptr %.sink12, align 1, !tbaa !25
  %22 = zext i8 %21 to i32
  br label %23

23:                                               ; preds = %.sink.split, %14
  %.0.i.ph = phi i32 [ %16, %14 ], [ %22, %.sink.split ]
  %24 = sext i32 %.0.i.ph to i64
  %25 = tail call fastcc ptr @r_string(i64 noundef %24, ptr noundef %0)
  %26 = icmp eq ptr %25, null
  br i1 %26, label %r_byte.exit, label %27

27:                                               ; preds = %23
  call void @llvm.memcpy.p0.p0.i64(ptr nonnull align 16 %2, ptr nonnull align 1 %25, i64 %24, i1 false)
  %28 = getelementptr [256 x i8], ptr %2, i64 0, i64 %24
  store i8 0, ptr %28, align 1, !tbaa !25
  %29 = call double @PyOS_string_to_double(ptr noundef nonnull %2, ptr noundef null, ptr noundef null) #11
  br label %r_byte.exit

r_byte.exit:                                      ; preds = %19, %17, %23, %27
  %.0 = phi double [ %29, %27 ], [ -1.000000e+00, %23 ], [ -1.000000e+00, %17 ], [ -1.000000e+00, %19 ]
  call void @llvm.lifetime.end.p0(i64 256, ptr nonnull %2) #11
  ret double %.0
}